target datalayout = "e-m:e-p270:32:32-p271:32:32-p272:64:64-i64:64-i128:128-f80:128-n8:16:32:64-S128"
target triple = "x86_64-pc-linux-gnu"

%"struct.icu_77::FormattedStringBuilder::Field" = type { i8 }
%"class.icu_77::SimpleFormatter" = type { [8 x i8], %"class.icu_77::UnicodeString" }
%"class.icu_77::UnicodeString" = type { %"class.icu_77::Replaceable", %"union.icu_77::UnicodeString::StackBufferOrFields" }
%"class.icu_77::Replaceable" = type { %"class.icu_77::UObject" }
%"class.icu_77::UObject" = type { ptr }
%"union.icu_77::UnicodeString::StackBufferOrFields" = type { %struct.anon.0, [32 x i8] }
%struct.anon.0 = type { i16, i32, i32, ptr }
%"class.icu_77::MeasureUnit" = type <{ %"class.icu_77::UObject", ptr, i16, i8, [5 x i8] }>
%"class.icu_77::number::Precision" = type <{ i32, [4 x i8], %"union.icu_77::number::Precision::PrecisionUnion", i32, [4 x i8] }>
%"union.icu_77::number::Precision::PrecisionUnion" = type { %"struct.icu_77::number::Precision::PrecisionUnion::IncrementSettings" }
%"struct.icu_77::number::Precision::PrecisionUnion::IncrementSettings" = type { i64, i16, i16 }
%"class.icu_77::number::impl::Grouper" = type { i16, i16, i16, i32 }
%"class.icu_77::number::impl::Padder" = type { i32, %union.anon }
%union.anon = type { %struct.anon.1 }
%struct.anon.1 = type { i32, i32 }
%"class.icu_77::number::IntegerWidth" = type <{ %union.anon.2, i8, [3 x i8] }>
%union.anon.2 = type { i32, [4 x i8] }
%"class.icu_77::number::Scale" = type <{ i32, [4 x i8], ptr, i32, [4 x i8] }>
%"class.icu_77::StandardPluralRanges" = type { %"class.icu_77::MaybeStackArray.28", i32, [4 x i8] }
%"class.icu_77::MaybeStackArray.28" = type <{ ptr, i32, i8, [3 x i8], [3 x %"struct.icu_77::StandardPluralRanges::StandardPluralRangeTriple"], [4 x i8] }>
%"struct.icu_77::StandardPluralRanges::StandardPluralRangeTriple" = type { i32, i32, i32 }
%"class.icu_77::number::impl::NumberRangeFormatterImpl" = type { [8 x i8], %"class.icu_77::number::impl::NumberFormatterImpl", %"class.icu_77::number::impl::NumberFormatterImpl", i8, i32, i32, %"class.icu_77::SimpleFormatter", %"class.icu_77::number::impl::NumberFormatterImpl", %"class.icu_77::StandardPluralRanges" }
%"class.icu_77::number::impl::NumberFormatterImpl" = type { ptr, %"struct.icu_77::number::impl::MicroProps", %"class.icu_77::LocalPointer", %"class.icu_77::LocalPointer.6", %"class.icu_77::LocalPointer.8", %"class.icu_77::LocalPointer.10", %"class.icu_77::LocalPointer.12", %"class.icu_77::LocalPointer.14", %"class.icu_77::LocalPointer.16", %"class.icu_77::LocalPointer.18", %"class.icu_77::LocalPointer.20", %"class.icu_77::LocalPointer.22", %"class.icu_77::LocalPointer.24", %"class.icu_77::LocalPointer.26" }
%"struct.icu_77::number::impl::MicroProps" = type <{ %"class.icu_77::number::impl::MicroPropsGenerator", %"struct.icu_77::number::impl::SimpleMicroProps", %"class.icu_77::number::impl::RoundingImpl", %"class.icu_77::number::impl::Padder", %"class.icu_77::number::IntegerWidth", i32, [9 x i8], [3 x i8], ptr, ptr, ptr, ptr, %struct.anon.4, %"class.icu_77::MeasureUnit", %"class.icu_77::number::impl::IntMeasures", i32, i32, i8, [7 x i8] }>
%"class.icu_77::number::impl::MicroPropsGenerator" = type { ptr }
%"struct.icu_77::number::impl::SimpleMicroProps" = type { [4 x i8], %"class.icu_77::number::impl::Grouper", i8, i32, %"class.icu_77::UnicodeString", ptr }
%"class.icu_77::number::impl::RoundingImpl" = type <{ %"class.icu_77::number::Precision", i32, i8, [3 x i8] }>
%struct.anon.4 = type { %"class.icu_77::number::impl::ScientificModifier", %"class.icu_77::number::impl::EmptyModifier", %"class.icu_77::number::impl::EmptyModifier", %"class.icu_77::number::impl::MultiplierFormatHandler", %"class.icu_77::number::impl::SimpleModifier" }
%"class.icu_77::number::impl::ScientificModifier" = type { %"class.icu_77::number::impl::Modifier", i32, ptr }
%"class.icu_77::number::impl::Modifier" = type { ptr }
%"class.icu_77::number::impl::EmptyModifier" = type <{ %"class.icu_77::number::impl::Modifier", i8, [7 x i8] }>
%"class.icu_77::number::impl::MultiplierFormatHandler" = type { %"class.icu_77::number::impl::MicroPropsGenerator", %"class.icu_77::number::Scale", ptr }
%"class.icu_77::number::impl::SimpleModifier" = type { %"class.icu_77::number::impl::Modifier", %"class.icu_77::UnicodeString", %"struct.icu_77::FormattedStringBuilder::Field", i8, i32, i32, i32, %"struct.icu_77::number::impl::Modifier::Parameters" }
%"struct.icu_77::number::impl::Modifier::Parameters" = type { ptr, i32, i32 }
%"class.icu_77::number::impl::IntMeasures" = type <{ %"class.icu_77::MaybeStackArray.5", i32, [4 x i8] }>
%"class.icu_77::MaybeStackArray.5" = type { ptr, i32, i8, [2 x i64] }
%"class.icu_77::LocalPointer" = type { %"class.icu_77::LocalPointerBase" }
%"class.icu_77::LocalPointerBase" = type { ptr }
%"class.icu_77::LocalPointer.6" = type { %"class.icu_77::LocalPointerBase.7" }
%"class.icu_77::LocalPointerBase.7" = type { ptr }
%"class.icu_77::LocalPointer.8" = type { %"class.icu_77::LocalPointerBase.9" }
%"class.icu_77::LocalPointerBase.9" = type { ptr }
%"class.icu_77::LocalPointer.10" = type { %"class.icu_77::LocalPointerBase.11" }
%"class.icu_77::LocalPointerBase.11" = type { ptr }
%"class.icu_77::LocalPointer.12" = type { %"class.icu_77::LocalPointerBase.13" }
%"class.icu_77::LocalPointerBase.13" = type { ptr }
%"class.icu_77::LocalPointer.14" = type { %"class.icu_77::LocalPointerBase.15" }
%"class.icu_77::LocalPointerBase.15" = type { ptr }
%"class.icu_77::LocalPointer.16" = type { %"class.icu_77::LocalPointerBase.17" }
%"class.icu_77::LocalPointerBase.17" = type { ptr }
%"class.icu_77::LocalPointer.18" = type { %"class.icu_77::LocalPointerBase.19" }
%"class.icu_77::LocalPointerBase.19" = type { ptr }
%"class.icu_77::LocalPointer.20" = type { %"class.icu_77::LocalPointerBase.21" }
%"class.icu_77::LocalPointerBase.21" = type { ptr }
%"class.icu_77::LocalPointer.22" = type { %"class.icu_77::LocalPointerBase.23" }
%"class.icu_77::LocalPointerBase.23" = type { ptr }
%"class.icu_77::LocalPointer.24" = type { %"class.icu_77::LocalPointerBase.25" }
%"class.icu_77::LocalPointerBase.25" = type { ptr }
%"class.icu_77::LocalPointer.26" = type { %"class.icu_77::LocalPointerBase.27" }
%"class.icu_77::LocalPointerBase.27" = type { ptr }
%"class.icu_77::number::impl::UFormattedNumberRangeData" = type { %"class.icu_77::FormattedValueStringBuilderImpl.base", [4 x i8], %"class.icu_77::number::impl::DecimalQuantity", %"class.icu_77::number::impl::DecimalQuantity", i32, [4 x i8] }
%"class.icu_77::FormattedValueStringBuilderImpl.base" = type <{ %"class.icu_77::FormattedValue", %"class.icu_77::FormattedStringBuilder", %"struct.icu_77::FormattedStringBuilder::Field", [7 x i8], %"class.icu_77::MaybeStackArray.34", i32 }>
%"class.icu_77::FormattedValue" = type { ptr }
%"class.icu_77::FormattedStringBuilder" = type { i8, %"union.icu_77::FormattedStringBuilder::ValueOrHeapArray", %"union.icu_77::FormattedStringBuilder::ValueOrHeapArray.32", i32, i32 }
%"union.icu_77::FormattedStringBuilder::ValueOrHeapArray" = type { %struct.anon.31, [64 x i8] }
%struct.anon.31 = type { ptr, i32 }
%"union.icu_77::FormattedStringBuilder::ValueOrHeapArray.32" = type { %struct.anon.33, [24 x i8] }
%struct.anon.33 = type { ptr, i32 }
%"class.icu_77::MaybeStackArray.34" = type { ptr, i32, i8, [8 x %"struct.icu_77::SpanInfo"] }
%"struct.icu_77::SpanInfo" = type { i32, i32, i32, i32 }
%"class.icu_77::number::impl::DecimalQuantity" = type <{ %"class.icu_77::IFixedDecimal", i8, [3 x i8], i32, i32, i8, i8, [2 x i8], double, i32, i32, i32, i32, %union.anon.35, i8, i8, [6 x i8] }>
%"class.icu_77::IFixedDecimal" = type { ptr }
%union.anon.35 = type { %struct.anon.36 }
%struct.anon.36 = type { ptr, i32 }
%"class.icu_77::FormattedValueStringBuilderImpl" = type <{ %"class.icu_77::FormattedValue", %"class.icu_77::FormattedStringBuilder", %"struct.icu_77::FormattedStringBuilder::Field", [7 x i8], %"class.icu_77::MaybeStackArray.34", i32, [4 x i8] }>

; Function Attrs: inlinehint mustprogress nounwind uwtable
define linkonce_odr noundef nonnull align 8 dereferenceable(136) ptr @_ZN6icu_7731FormattedValueStringBuilderImpl12getStringRefEv(ptr noundef nonnull align 8 dereferenceable(300) %0) #2 comdat align 2 {
  %2 = alloca ptr, align 8
  store ptr %0, ptr %2, align 8, !tbaa !177
  %3 = load ptr, ptr %2, align 8
  %4 = getelementptr inbounds nuw %"class.icu_77::FormattedValueStringBuilderImpl", ptr %3, i32 0, i32 1
  ret ptr %4
}

; Function Attrs: inlinehint mustprogress nounwind uwtable
define internal noundef signext i8 @_ZL9U_FAILURE10UErrorCode(i32 noundef %0) #2 {
  %2 = alloca i32, align 4
  store i32 %0, ptr %2, align 4, !tbaa !15
  %3 = load i32, ptr %2, align 4, !tbaa !15
  %4 = icmp sgt i32 %3, 0
  %5 = zext i1 %4 to i8
  ret i8 %5
}

; Function Attrs: mustprogress uwtable
define void @_ZNK6icu_776number4impl24NumberRangeFormatterImpl17formatSingleValueERNS1_25UFormattedNumberRangeDataERNS1_10MicroPropsES6_R10UErrorCode(ptr noundef nonnull align 8 dereferenceable(1960) %0, ptr noundef nonnull align 8 dereferenceable(452) %1, ptr noundef nonnull align 8 dereferenceable(489) %2, ptr noundef nonnull align 8 dereferenceable(489) %3, ptr noundef nonnull align 4 dereferenceable(4) %4) #1 align 2 {
  %6 = alloca ptr, align 8
  %7 = alloca ptr, align 8
  %8 = alloca ptr, align 8
  %9 = alloca ptr, align 8
  %10 = alloca ptr, align 8
  %11 = alloca i32, align 4
  store ptr %0, ptr %6, align 8, !tbaa !23
  store ptr %1, ptr %7, align 8, !tbaa !146
  store ptr %2, ptr %8, align 8, !tbaa !163
  store ptr %3, ptr %9, align 8, !tbaa !163
  store ptr %4, ptr %10, align 8, !tbaa !22
  %12 = load ptr, ptr %6, align 8
  %13 = load ptr, ptr %10, align 8, !tbaa !22
  %14 = load i32, ptr %13, align 4, !tbaa !15
  %15 = call noundef signext i8 @_ZL9U_FAILURE10UErrorCode(i32 noundef %14)
  %16 = icmp ne i8 %15, 0
  br i1 %16, label %17, label %18

17:                                               ; preds = %5
  br label %42

18:                                               ; preds = %5
  %19 = getelementptr inbounds nuw %"class.icu_77::number::impl::NumberRangeFormatterImpl", ptr %12, i32 0, i32 3
  %20 = load i8, ptr %19, align 8, !tbaa !62, !range !60, !noundef !61
  %21 = trunc i8 %20 to i1
  br i1 %21, label %22, label %37

22:                                               ; preds = %18
  call void @llvm.lifetime.start.p0(i64 4, ptr %11) #14
  %23 = load ptr, ptr %8, align 8, !tbaa !163
  %24 = getelementptr inbounds nuw %"struct.icu_77::number::impl::MicroProps", ptr %23, i32 0, i32 1
  %25 = load ptr, ptr %7, align 8, !tbaa !146
  %26 = getelementptr inbounds nuw %"class.icu_77::number::impl::UFormattedNumberRangeData", ptr %25, i32 0, i32 2
  %27 = load ptr, ptr %7, align 8, !tbaa !146
  %28 = call noundef nonnull align 8 dereferenceable(136) ptr @_ZN6icu_7731FormattedValueStringBuilderImpl12getStringRefEv(ptr noundef nonnull align 8 dereferenceable(300) %27)
  %29 = load ptr, ptr %10, align 8, !tbaa !22
  %30 = call noundef i32 @_ZN6icu_776number4impl19NumberFormatterImpl11writeNumberERKNS1_16SimpleMicroPropsERNS1_15DecimalQuantityERNS_22FormattedStringBuilderEiR10UErrorCode(ptr noundef nonnull align 8 dereferenceable(96) %24, ptr noundef nonnull align 8 dereferenceable(66) %26, ptr noundef nonnull align 8 dereferenceable(136) %28, i32 noundef 0, ptr noundef nonnull align 4 dereferenceable(4) %29)
  store i32 %30, ptr %11, align 4, !tbaa !14
  %31 = load ptr, ptr %8, align 8, !tbaa !163
  %32 = load ptr, ptr %7, align 8, !tbaa !146
  %33 = call noundef nonnull align 8 dereferenceable(136) ptr @_ZN6icu_7731FormattedValueStringBuilderImpl12getStringRefEv(ptr noundef nonnull align 8 dereferenceable(300) %32)
  %34 = load i32, ptr %11, align 4, !tbaa !14
  %35 = load ptr, ptr %10, align 8, !tbaa !22
  %36 = call noundef i32 @_ZN6icu_776number4impl19NumberFormatterImpl12writeAffixesERKNS1_10MicroPropsERNS_22FormattedStringBuilderEiiR10UErrorCode(ptr noundef nonnull align 8 dereferenceable(489) %31, ptr noundef nonnull align 8 dereferenceable(136) %33, i32 noundef 0, i32 noundef %34, ptr noundef nonnull align 4 dereferenceable(4) %35)
  call void @llvm.lifetime.end.p0(i64 4, ptr %11) #14
  br label %42

37:                                               ; preds = %18
  %38 = load ptr, ptr %7, align 8, !tbaa !146
  %39 = load ptr, ptr %8, align 8, !tbaa !163
  %40 = load ptr, ptr %9, align 8, !tbaa !163
  %41 = load ptr, ptr %10, align 8, !tbaa !22
  call void @_ZNK6icu_776number4impl24NumberRangeFormatterImpl11formatRangeERNS1_25UFormattedNumberRangeDataERNS1_10MicroPropsES6_R10UErrorCode(ptr noundef nonnull align 8 dereferenceable(1960) %12, ptr noundef nonnull align 8 dereferenceable(452) %38, ptr noundef nonnull align 8 dereferenceable(489) %39, ptr noundef nonnull align 8 dereferenceable(489) %40, ptr noundef nonnull align 4 dereferenceable(4) %41)
  br label %42

42:                                               ; preds = %17, %37, %22
  ret void
}