; Function Attrs: mustprogress uwtable
define void @_ZNK6icu_776number4impl24NumberRangeFormatterImpl17formatSingleValueERNS1_25UFormattedNumberRangeDataERNS1_10MicroPropsES6_R10UErrorCode(ptr noundef nonnull align 8 dereferenceable(1960) %0, ptr noundef nonnull align 8 dereferenceable(452) %1, ptr noundef nonnull align 8 dereferenceable(489) %2, ptr noundef nonnull align 8 dereferenceable(489) %3, ptr noundef nonnull align 4 dereferenceable(4) %4) local_unnamed_addr #1 align 2 {
  %6 = load i32, ptr %4, align 4, !tbaa !13
  %7 = icmp slt i32 %6, 1
  br i1 %7, label %8, label %19

8:                                                ; preds = %5
  %9 = getelementptr inbounds nuw i8, ptr %0, i64 1208
  %10 = load i8, ptr %9, align 8, !tbaa !50, !range !48, !noundef !49
  %11 = trunc nuw i8 %10 to i1
  br i1 %11, label %12, label %18

12:                                               ; preds = %8
  %13 = getelementptr inbounds nuw i8, ptr %2, i64 8
  %14 = getelementptr inbounds nuw i8, ptr %1, i64 304
  %15 = getelementptr inbounds nuw i8, ptr %1, i64 8
  %16 = tail call noundef i32 @_ZN6icu_776number4impl19NumberFormatterImpl11writeNumberERKNS1_16SimpleMicroPropsERNS1_15DecimalQuantityERNS_22FormattedStringBuilderEiR10UErrorCode(ptr noundef nonnull align 8 dereferenceable(96) %13, ptr noundef nonnull align 8 dereferenceable(66) %14, ptr noundef nonnull align 8 dereferenceable(136) %15, i32 noundef 0, ptr noundef nonnull align 4 dereferenceable(4) %4)
  %17 = tail call noundef i32 @_ZN6icu_776number4impl19NumberFormatterImpl12writeAffixesERKNS1_10MicroPropsERNS_22FormattedStringBuilderEiiR10UErrorCode(ptr noundef nonnull align 8 dereferenceable(489) %2, ptr noundef nonnull align 8 dereferenceable(136) %15, i32 noundef 0, i32 noundef %16, ptr noundef nonnull align 4 dereferenceable(4) %4)
  br label %19

18:                                               ; preds = %8
  tail call void @_ZNK6icu_776number4impl24NumberRangeFormatterImpl11formatRangeERNS1_25UFormattedNumberRangeDataERNS1_10MicroPropsES6_R10UErrorCode(ptr noundef nonnull align 8 dereferenceable(1960) %0, ptr noundef nonnull align 8 dereferenceable(452) %1, ptr noundef nonnull align 8 dereferenceable(489) %2, ptr noundef nonnull align 8 dereferenceable(489) %3, ptr noundef nonnull align 4 dereferenceable(4) %4)
  br label %19

19:                                               ; preds = %5, %18, %12
  ret void
}